; ModuleID = '21/912.c'
source_filename = "21/912.c"
target datalayout = "e-m:e-p270:32:32-p271:32:32-p272:64:64-i64:64-f80:128-n8:16:32:64-S128"
target triple = "x86_64-pc-linux-gnu"

@.str = private unnamed_addr constant [3 x i8] c"%d\00", align 1
@.str.1 = private unnamed_addr constant [4 x i8] c",%d\00", align 1

; Function Attrs: noinline nounwind uwtable
define dso_local i32 @main() #0 {
  %1 = alloca i32, align 4
  %2 = alloca i32, align 4
  %3 = alloca i32, align 4
  %4 = alloca i32, align 4
  %5 = alloca i32, align 4
  %6 = alloca i32, align 4
  %7 = alloca [10000 x i32], align 16
  %8 = alloca [10000 x i32], align 16
  %9 = alloca double, align 8
  %10 = alloca double, align 8
  store i32 0, i32* %1, align 4
  store i32 0, i32* %5, align 4
  store double 0.000000e+00, double* %9, align 8
  %11 = call i32 (i8*, ...) @__isoc99_scanf(i8* getelementptr inbounds ([3 x i8], [3 x i8]* @.str, i64 0, i64 0), i32* %2)
  store i32 0, i32* %3, align 4
  br label %12

12:                                               ; preds = %28, %0
  %13 = load i32, i32* %3, align 4
  %14 = load i32, i32* %2, align 4
  %15 = icmp slt i32 %13, %14
  br i1 %15, label %16, label %31

16:                                               ; preds = %12
  %17 = load i32, i32* %3, align 4
  %18 = sext i32 %17 to i64
  %19 = getelementptr inbounds [10000 x i32], [10000 x i32]* %7, i64 0, i64 %18
  %20 = call i32 (i8*, ...) @__isoc99_scanf(i8* getelementptr inbounds ([3 x i8], [3 x i8]* @.str, i64 0, i64 0), i32* %19)
  %21 = load double, double* %9, align 8
  %22 = load i32, i32* %3, align 4
  %23 = sext i32 %22 to i64
  %24 = getelementptr inbounds [10000 x i32], [10000 x i32]* %7, i64 0, i64 %23
  %25 = load i32, i32* %24, align 4
  %26 = sitofp i32 %25 to double
  %27 = fadd double %21, %26
  store double %27, double* %9, align 8
  br label %28

28:                                               ; preds = %16
  %29 = load i32, i32* %3, align 4
  %30 = add nsw i32 %29, 1
  store i32 %30, i32* %3, align 4
  br label %12

31:                                               ; preds = %12
  %32 = load double, double* %9, align 8
  %33 = load i32, i32* %2, align 4
  %34 = sitofp i32 %33 to double
  %35 = fdiv double %32, %34
  store double %35, double* %9, align 8
  %36 = load double, double* %9, align 8
  %37 = getelementptr inbounds [10000 x i32], [10000 x i32]* %7, i64 0, i64 0
  %38 = load i32, i32* %37, align 16
  %39 = sitofp i32 %38 to double
  %40 = fsub double %36, %39
  %41 = call double @llvm.fabs.f64(double %40)
  store double %41, double* %10, align 8
  store i32 0, i32* %3, align 4
  br label %42

42:                                               ; preds = %67, %31
  %43 = load i32, i32* %3, align 4
  %44 = load i32, i32* %2, align 4
  %45 = icmp slt i32 %43, %44
  br i1 %45, label %46, label %70

46:                                               ; preds = %42
  %47 = load double, double* %9, align 8
  %48 = load i32, i32* %3, align 4
  %49 = sext i32 %48 to i64
  %50 = getelementptr inbounds [10000 x i32], [10000 x i32]* %7, i64 0, i64 %49
  %51 = load i32, i32* %50, align 4
  %52 = sitofp i32 %51 to double
  %53 = fsub double %47, %52
  %54 = call double @llvm.fabs.f64(double %53)
  %55 = load double, double* %10, align 8
  %56 = fcmp ogt double %54, %55
  br i1 %56, label %57, label %66

57:                                               ; preds = %46
  %58 = load double, double* %9, align 8
  %59 = load i32, i32* %3, align 4
  %60 = sext i32 %59 to i64
  %61 = getelementptr inbounds [10000 x i32], [10000 x i32]* %7, i64 0, i64 %60
  %62 = load i32, i32* %61, align 4
  %63 = sitofp i32 %62 to double
  %64 = fsub double %58, %63
  %65 = call double @llvm.fabs.f64(double %64)
  store double %65, double* %10, align 8
  br label %66

66:                                               ; preds = %57, %46
  br label %67

67:                                               ; preds = %66
  %68 = load i32, i32* %3, align 4
  %69 = add nsw i32 %68, 1
  store i32 %69, i32* %3, align 4
  br label %42

70:                                               ; preds = %42
  store i32 0, i32* %3, align 4
  br label %71

71:                                               ; preds = %110, %70
  %72 = load i32, i32* %3, align 4
  %73 = load i32, i32* %2, align 4
  %74 = icmp slt i32 %72, %73
  br i1 %74, label %75, label %113

75:                                               ; preds = %71
  %76 = load double, double* %9, align 8
  %77 = load i32, i32* %3, align 4
  %78 = sext i32 %77 to i64
  %79 = getelementptr inbounds [10000 x i32], [10000 x i32]* %7, i64 0, i64 %78
  %80 = load i32, i32* %79, align 4
  %81 = sitofp i32 %80 to double
  %82 = fsub double %76, %81
  %83 = call double @llvm.fabs.f64(double %82)
  %84 = load double, double* %10, align 8
  %85 = fadd double %84, 0x3EB0C6F7A0B5ED8D
  %86 = fcmp ole double %83, %85
  br i1 %86, label %87, label %109

87:                                               ; preds = %75
  %88 = load double, double* %9, align 8
  %89 = load i32, i32* %3, align 4
  %90 = sext i32 %89 to i64
  %91 = getelementptr inbounds [10000 x i32], [10000 x i32]* %7, i64 0, i64 %90
  %92 = load i32, i32* %91, align 4
  %93 = sitofp i32 %92 to double
  %94 = fsub double %88, %93
  %95 = call double @llvm.fabs.f64(double %94)
  %96 = load double, double* %10, align 8
  %97 = fsub double %96, 0x3EB0C6F7A0B5ED8D
  %98 = fcmp oge double %95, %97
  br i1 %98, label %99, label %109

99:                                               ; preds = %87
  %100 = load i32, i32* %3, align 4
  %101 = sext i32 %100 to i64
  %102 = getelementptr inbounds [10000 x i32], [10000 x i32]* %7, i64 0, i64 %101
  %103 = load i32, i32* %102, align 4
  %104 = load i32, i32* %5, align 4
  %105 = sext i32 %104 to i64
  %106 = getelementptr inbounds [10000 x i32], [10000 x i32]* %8, i64 0, i64 %105
  store i32 %103, i32* %106, align 4
  %107 = load i32, i32* %5, align 4
  %108 = add nsw i32 %107, 1
  store i32 %108, i32* %5, align 4
  br label %109

109:                                              ; preds = %99, %87, %75
  br label %110

110:                                              ; preds = %109
  %111 = load i32, i32* %3, align 4
  %112 = add nsw i32 %111, 1
  store i32 %112, i32* %3, align 4
  br label %71

113:                                              ; preds = %71
  store i32 0, i32* %3, align 4
  br label %114

114:                                              ; preds = %161, %113
  %115 = load i32, i32* %3, align 4
  %116 = load i32, i32* %5, align 4
  %117 = sub nsw i32 %116, 1
  %118 = icmp slt i32 %115, %117
  br i1 %118, label %119, label %164

119:                                              ; preds = %114
  store i32 0, i32* %4, align 4
  br label %120

120:                                              ; preds = %157, %119
  %121 = load i32, i32* %4, align 4
  %122 = load i32, i32* %5, align 4
  %123 = sub nsw i32 %122, 1
  %124 = load i32, i32* %3, align 4
  %125 = sub nsw i32 %123, %124
  %126 = icmp slt i32 %121, %125
  br i1 %126, label %127, label %160

127:                                              ; preds = %120
  %128 = load i32, i32* %4, align 4
  %129 = sext i32 %128 to i64
  %130 = getelementptr inbounds [10000 x i32], [10000 x i32]* %8, i64 0, i64 %129
  %131 = load i32, i32* %130, align 4
  %132 = load i32, i32* %4, align 4
  %133 = add nsw i32 %132, 1
  %134 = sext i32 %133 to i64
  %135 = getelementptr inbounds [10000 x i32], [10000 x i32]* %8, i64 0, i64 %134
  %136 = load i32, i32* %135, align 4
  %137 = icmp sgt i32 %131, %136
  br i1 %137, label %138, label %156

138:                                              ; preds = %127
  %139 = load i32, i32* %4, align 4
  %140 = sext i32 %139 to i64
  %141 = getelementptr inbounds [10000 x i32], [10000 x i32]* %8, i64 0, i64 %140
  %142 = load i32, i32* %141, align 4
  store i32 %142, i32* %6, align 4
  %143 = load i32, i32* %4, align 4
  %144 = add nsw i32 %143, 1
  %145 = sext i32 %144 to i64
  %146 = getelementptr inbounds [10000 x i32], [10000 x i32]* %8, i64 0, i64 %145
  %147 = load i32, i32* %146, align 4
  %148 = load i32, i32* %4, align 4
  %149 = sext i32 %148 to i64
  %150 = getelementptr inbounds [10000 x i32], [10000 x i32]* %8, i64 0, i64 %149
  store i32 %147, i32* %150, align 4
  %151 = load i32, i32* %6, align 4
  %152 = load i32, i32* %4, align 4
  %153 = add nsw i32 %152, 1
  %154 = sext i32 %153 to i64
  %155 = getelementptr inbounds [10000 x i32], [10000 x i32]* %8, i64 0, i64 %154
  store i32 %151, i32* %155, align 4
  br label %156

156:                                              ; preds = %138, %127
  br label %157

157:                                              ; preds = %156
  %158 = load i32, i32* %4, align 4
  %159 = add nsw i32 %158, 1
  store i32 %159, i32* %4, align 4
  br label %120

160:                                              ; preds = %120
  br label %161

161:                                              ; preds = %160
  %162 = load i32, i32* %3, align 4
  %163 = add nsw i32 %162, 1
  store i32 %163, i32* %3, align 4
  br label %114

164:                                              ; preds = %114
  store i32 0, i32* %3, align 4
  br label %165

165:                                              ; preds = %185, %164
  %166 = load i32, i32* %3, align 4
  %167 = load i32, i32* %5, align 4
  %168 = icmp slt i32 %166, %167
  br i1 %168, label %169, label %188

169:                                              ; preds = %165
  %170 = load i32, i32* %3, align 4
  %171 = icmp eq i32 %170, 0
  br i1 %171, label %172, label %178

172:                                              ; preds = %169
  %173 = load i32, i32* %3, align 4
  %174 = sext i32 %173 to i64
  %175 = getelementptr inbounds [10000 x i32], [10000 x i32]* %8, i64 0, i64 %174
  %176 = load i32, i32* %175, align 4
  %177 = call i32 (i8*, ...) @printf(i8* getelementptr inbounds ([3 x i8], [3 x i8]* @.str, i64 0, i64 0), i32 %176)
  br label %184

178:                                              ; preds = %169
  %179 = load i32, i32* %3, align 4
  %180 = sext i32 %179 to i64
  %181 = getelementptr inbounds [10000 x i32], [10000 x i32]* %8, i64 0, i64 %180
  %182 = load i32, i32* %181, align 4
  %183 = call i32 (i8*, ...) @printf(i8* getelementptr inbounds ([4 x i8], [4 x i8]* @.str.1, i64 0, i64 0), i32 %182)
  br label %184

184:                                              ; preds = %178, %172
  br label %185

185:                                              ; preds = %184
  %186 = load i32, i32* %3, align 4
  %187 = add nsw i32 %186, 1
  store i32 %187, i32* %3, align 4
  br label %165

188:                                              ; preds = %165
  ret i32 0
}

declare dso_local i32 @__isoc99_scanf(i8*, ...) #1

; Function Attrs: nounwind readnone speculatable willreturn
declare double @llvm.fabs.f64(double) #2

declare dso_local i32 @printf(i8*, ...) #1


!llvm.module.flags = !{!0}
!llvm.ident = !{!1}

!0 = !{i32 1, !"wchar_size", i32 4}
!1 = !{!"clang version 10.0.0-4ubuntu1 "}
